; Function Attrs: mustprogress uwtable
define void @_ZN5folly12AsyncTimeout20attachTimeoutManagerEPNS_14TimeoutManagerENS1_12InternalEnumE(ptr noundef nonnull align 8 dereferenceable(200) initializes((176, 184)) %0, ptr noundef %1, i32 noundef %2) local_unnamed_addr #1 align 2 {
  %4 = getelementptr inbounds nuw i8, ptr %0, i64 176
  store ptr %1, ptr %4, align 8, !tbaa !10
  %5 = load ptr, ptr %1, align 8, !tbaa !7
  %6 = getelementptr inbounds nuw i8, ptr %5, i64 16
  %7 = load ptr, ptr %6, align 8
  tail call void %7(ptr noundef nonnull align 8 dereferenceable(16) %1, ptr noundef nonnull %0, i32 noundef %2)
  ret void
}